target datalayout = "e-m:e-p270:32:32-p271:32:32-p272:64:64-i64:64-i128:128-f80:128-n8:16:32:64-S128"
target triple = "x86_64-pc-linux-gnu"

%"struct.faiss::IDSelector" = type { ptr }
%"struct.faiss::IDSelectorArray" = type { %"struct.faiss::IDSelector", i64, ptr }

; Function Attrs: mustprogress nounwind uwtable
define noundef zeroext i1 @_ZNK5faiss15IDSelectorArray9is_memberEl(ptr noundef nonnull align 8 dereferenceable(24) %0, i64 noundef %1) unnamed_addr #0 align 2 {
  %3 = alloca i1, align 1
  %4 = alloca ptr, align 8
  %5 = alloca i64, align 8
  %6 = alloca i64, align 8
  store ptr %0, ptr %4, align 8
  store i64 %1, ptr %5, align 8
  %7 = load ptr, ptr %4, align 8
  store i64 0, ptr %6, align 8
  br label %8

8:                                                ; preds = %23, %2
  %9 = load i64, ptr %6, align 8
  %10 = getelementptr inbounds %"struct.faiss::IDSelectorArray", ptr %7, i32 0, i32 1
  %11 = load i64, ptr %10, align 8
  %12 = icmp ult i64 %9, %11
  br i1 %12, label %13, label %26

13:                                               ; preds = %8
  %14 = getelementptr inbounds %"struct.faiss::IDSelectorArray", ptr %7, i32 0, i32 2
  %15 = load ptr, ptr %14, align 8
  %16 = load i64, ptr %6, align 8
  %17 = getelementptr inbounds i64, ptr %15, i64 %16
  %18 = load i64, ptr %17, align 8
  %19 = load i64, ptr %5, align 8
  %20 = icmp eq i64 %18, %19
  br i1 %20, label %21, label %22

21:                                               ; preds = %13
  store i1 true, ptr %3, align 1
  br label %27

22:                                               ; preds = %13
  br label %23

23:                                               ; preds = %22
  %24 = load i64, ptr %6, align 8
  %25 = add nsw i64 %24, 1
  store i64 %25, ptr %6, align 8
  br label %8, !llvm.loop !5

26:                                               ; preds = %8
  store i1 false, ptr %3, align 1
  br label %27

27:                                               ; preds = %26, %21
  %28 = load i1, ptr %3, align 1
  ret i1 %28
}